   1               		.file	"usb_keyboard_debug.c"
   2               	__SREG__ = 0x3f
   3               	__SP_H__ = 0x3e
   4               	__SP_L__ = 0x3d
   5               	__CCP__  = 0x34
   6               	__tmp_reg__ = 0
   7               	__zero_reg__ = 1
  15               	.Ltext0:
  16               		.section	.text.usb_init,"ax",@progbits
  17               	.global	usb_init
  19               	usb_init:
  20               	.LFB2:
  21               	.LSM0:
  22               	/* prologue: function */
  23               	/* frame size = 0 */
  24               	.LSM1:
  25 0000 81E0      		ldi r24,lo8(1)
  26 0002 8093 D700 		sts 215,r24
  27               	.LSM2:
  28 0006 80EA      		ldi r24,lo8(-96)
  29 0008 8093 D800 		sts 216,r24
  30               	.LSM3:
  31 000c 82E1      		ldi r24,lo8(18)
  32 000e 89BD      		out 73-32,r24
  33               	.L2:
  34               	.LSM4:
  35 0010 09B4      		in __tmp_reg__,73-32
  36 0012 00FE      		sbrs __tmp_reg__,0
  37 0014 00C0      		rjmp .L2
  38               	.LSM5:
  39 0016 80E9      		ldi r24,lo8(-112)
  40 0018 8093 D800 		sts 216,r24
  41               	.LSM6:
  42 001c 1092 E000 		sts 224,__zero_reg__
  43               	.LSM7:
  44 0020 1092 0000 		sts usb_configuration,__zero_reg__
  45               	.LSM8:
  46 0024 8CE0      		ldi r24,lo8(12)
  47 0026 8093 E200 		sts 226,r24
  48               	.LSM9:
  49               	/* #APP */
  50               	 ;  331 "usb_keyboard_debug.c" 1
  51 002a 7894      		sei
  52               	 ;  0 "" 2
  53               	/* epilogue start */
  54               	.LSM10:
  55               	/* #NOAPP */
  56 002c 0895      		ret
  57               	.LFE2:
  59               		.section	.text.usb_configured,"ax",@progbits
  60               	.global	usb_configured
  62               	usb_configured:
  63               	.LFB3:
  64               	.LSM11:
  65               	/* prologue: function */
  66               	/* frame size = 0 */
  67               	.LSM12:
  68 0000 8091 0000 		lds r24,usb_configuration
  69               	/* epilogue start */
  70               	.LSM13:
  71 0004 0895      		ret
  72               	.LFE3:
  74               		.section	.text.usb_keyboard_send,"ax",@progbits
  75               	.global	usb_keyboard_send
  77               	usb_keyboard_send:
  78               	.LFB5:
  79               	.LSM14:
  80               	/* prologue: function */
  81               	/* frame size = 0 */
  82               	.LSM15:
  83 0000 8091 0000 		lds r24,usb_configuration
  84 0004 8823      		tst r24
  85 0006 01F4      		brne .+2
  86 0008 00C0      		rjmp .L8
  87               	.LSM16:
  88 000a 2FB7      		in r18,__SREG__
  89               	.LVL0:
  90               	.LSM17:
  91               	/* #APP */
  92               	 ;  363 "usb_keyboard_debug.c" 1
  93 000c F894      		cli
  94               	 ;  0 "" 2
  95               	.LSM18:
  96               	/* #NOAPP */
  97 000e 83E0      		ldi r24,lo8(3)
  98 0010 8093 E900 		sts 233,r24
  99               	.LSM19:
 100 0014 9091 E400 		lds r25,228
 101               	.LVL1:
 102 0018 9E5C      		subi r25,lo8(-(50))
 103               	.LSM20:
 104 001a 33E0      		ldi r19,lo8(3)
 105               	.L10:
 106               	.LSM21:
 107 001c 8091 E800 		lds r24,232
 108 0020 85FD      		sbrc r24,5
 109 0022 00C0      		rjmp .L9
 110               	.LSM22:
 111 0024 2FBF      		out __SREG__,r18
 112               	.LSM23:
 113 0026 8091 0000 		lds r24,usb_configuration
 114 002a 8823      		tst r24
 115 002c 01F0      		breq .L8
 116               	.LSM24:
 117 002e 8091 E400 		lds r24,228
 118 0032 8917      		cp r24,r25
 119 0034 01F0      		breq .L8
 120               	.LSM25:
 121 0036 2FB7      		in r18,__SREG__
 122               	.LSM26:
 123               	/* #APP */
 124               	 ;  376 "usb_keyboard_debug.c" 1
 125 0038 F894      		cli
 126               	 ;  0 "" 2
 127               	.LSM27:
 128               	/* #NOAPP */
 129 003a 3093 E900 		sts 233,r19
 130 003e 00C0      		rjmp .L10
 131               	.L9:
 132               	.LSM28:
 133 0040 8091 0000 		lds r24,keyboard_modifier_keys
 134 0044 8093 F100 		sts 241,r24
 135               	.LSM29:
 136 0048 1092 F100 		sts 241,__zero_reg__
 137               	.LSM30:
 138 004c 8091 0000 		lds r24,keyboard_keys
 139 0050 8093 F100 		sts 241,r24
 140 0054 8091 0000 		lds r24,keyboard_keys+1
 141 0058 8093 F100 		sts 241,r24
 142 005c 8091 0000 		lds r24,keyboard_keys+2
 143 0060 8093 F100 		sts 241,r24
 144 0064 8091 0000 		lds r24,keyboard_keys+3
 145 0068 8093 F100 		sts 241,r24
 146 006c 8091 0000 		lds r24,keyboard_keys+4
 147 0070 8093 F100 		sts 241,r24
 148 0074 8091 0000 		lds r24,keyboard_keys+5
 149 0078 8093 F100 		sts 241,r24
 150               	.LSM31:
 151 007c 8AE3      		ldi r24,lo8(58)
 152 007e 8093 E800 		sts 232,r24
 153               	.LSM32:
 154 0082 1092 0000 		sts keyboard_idle_count,__zero_reg__
 155               	.LSM33:
 156 0086 2FBF      		out __SREG__,r18
 157 0088 80E0      		ldi r24,lo8(0)
 158 008a 0895      		ret
 159               	.L8:
 160               	.LSM34:
 161 008c 8FEF      		ldi r24,lo8(-1)
 162               	.LSM35:
 163 008e 0895      		ret
 164               	.LFE5:
 166               		.section	.text.usb_keyboard_press,"ax",@progbits
 167               	.global	usb_keyboard_press
 169               	usb_keyboard_press:
 170               	.LFB4:
 171               	.LSM36:
 172               	.LVL2:
 173               	/* prologue: function */
 174               	/* frame size = 0 */
 175               	.LSM37:
 176 0000 6093 0000 		sts keyboard_modifier_keys,r22
 177               	.LSM38:
 178 0004 8093 0000 		sts keyboard_keys,r24
 179               	.LSM39:
 180 0008 0E94 0000 		call usb_keyboard_send
 181               	.LVL3:
 182               	.LSM40:
 183 000c 8823      		tst r24
 184               	.LVL4:
 185 000e 01F4      		brne .L14
 186               	.LSM41:
 187 0010 1092 0000 		sts keyboard_modifier_keys,__zero_reg__
 188               	.LSM42:
 189 0014 1092 0000 		sts keyboard_keys,__zero_reg__
 190               	.LSM43:
 191 0018 0E94 0000 		call usb_keyboard_send
 192               	.LVL5:
 193               	.L14:
 194               	.LVL6:
 195               	.LSM44:
 196 001c 0895      		ret
 197               	.LFE4:
 199               		.section	.text.usb_debug_putchar,"ax",@progbits
 200               	.global	usb_debug_putchar
 202               	usb_debug_putchar:
 203               	.LFB6:
 204               	.LSM45:
 205               	.LVL7:
 206               	/* prologue: function */
 207               	/* frame size = 0 */
 208 0000 482F      		mov r20,r24
 209               	.LSM46:
 210 0002 8091 0000 		lds r24,usb_configuration
 211               	.LVL8:
 212 0006 8823      		tst r24
 213 0008 01F4      		brne .+2
 214 000a 00C0      		rjmp .L17
 215               	.LSM47:
 216 000c 2FB7      		in r18,__SREG__
 217               	.LVL9:
 218               	.LSM48:
 219               	/* #APP */
 220               	 ;  402 "usb_keyboard_debug.c" 1
 221 000e F894      		cli
 222               	 ;  0 "" 2
 223               	.LSM49:
 224               	/* #NOAPP */
 225 0010 84E0      		ldi r24,lo8(4)
 226 0012 8093 E900 		sts 233,r24
 227               	.LSM50:
 228 0016 8091 0000 		lds r24,previous_timeout.1424
 229 001a 8823      		tst r24
 230 001c 01F0      		breq .L18
 231               	.LSM51:
 232 001e 8091 E800 		lds r24,232
 233 0022 85FD      		sbrc r24,5
 234 0024 00C0      		rjmp .L19
 235               	.LSM52:
 236 0026 2FBF      		out __SREG__,r18
 237 0028 00C0      		rjmp .L27
 238               	.L19:
 239               	.LSM53:
 240 002a 1092 0000 		sts previous_timeout.1424,__zero_reg__
 241               	.L18:
 242               	.LSM54:
 243 002e 9091 E400 		lds r25,228
 244               	.LVL10:
 245 0032 9C5F      		subi r25,lo8(-(4))
 246               	.LSM55:
 247 0034 34E0      		ldi r19,lo8(4)
 248               	.L23:
 249               	.LSM56:
 250 0036 8091 E800 		lds r24,232
 251 003a 85FD      		sbrc r24,5
 252 003c 00C0      		rjmp .L21
 253               	.LSM57:
 254 003e 2FBF      		out __SREG__,r18
 255               	.LSM58:
 256 0040 8091 E400 		lds r24,228
 257 0044 8917      		cp r24,r25
 258 0046 01F4      		brne .L22
 259               	.LSM59:
 260 0048 81E0      		ldi r24,lo8(1)
 261 004a 8093 0000 		sts previous_timeout.1424,r24
 262               	.L27:
 263 004e 8FEF      		ldi r24,lo8(-1)
 264 0050 0895      		ret
 265               	.L22:
 266               	.LSM60:
 267 0052 8091 0000 		lds r24,usb_configuration
 268 0056 8823      		tst r24
 269 0058 01F0      		breq .L17
 270               	.LSM61:
 271 005a 2FB7      		in r18,__SREG__
 272               	.LSM62:
 273               	/* #APP */
 274               	 ;  427 "usb_keyboard_debug.c" 1
 275 005c F894      		cli
 276               	 ;  0 "" 2
 277               	.LSM63:
 278               	/* #NOAPP */
 279 005e 3093 E900 		sts 233,r19
 280 0062 00C0      		rjmp .L23
 281               	.L21:
 282               	.LSM64:
 283 0064 4093 F100 		sts 241,r20
 284               	.LSM65:
 285 0068 8091 E800 		lds r24,232
 286 006c 85FD      		sbrc r24,5
 287 006e 00C0      		rjmp .L24
 288               	.LSM66:
 289 0070 8AE3      		ldi r24,lo8(58)
 290 0072 8093 E800 		sts 232,r24
 291               	.LSM67:
 292 0076 1092 0000 		sts debug_flush_timer,__zero_reg__
 293 007a 00C0      		rjmp .L25
 294               	.L24:
 295               	.LSM68:
 296 007c 82E0      		ldi r24,lo8(2)
 297 007e 8093 0000 		sts debug_flush_timer,r24
 298               	.L25:
 299               	.LSM69:
 300 0082 2FBF      		out __SREG__,r18
 301 0084 80E0      		ldi r24,lo8(0)
 302 0086 0895      		ret
 303               	.L17:
 304               	.LSM70:
 305 0088 8FEF      		ldi r24,lo8(-1)
 306               	.LSM71:
 307 008a 0895      		ret
 308               	.LFE6:
 310               		.section	.text.usb_debug_flush_output,"ax",@progbits
 311               	.global	usb_debug_flush_output
 313               	usb_debug_flush_output:
 314               	.LFB7:
 315               	.LSM72:
 316               	/* prologue: function */
 317               	/* frame size = 0 */
 318               	.LSM73:
 319 0000 9FB7      		in r25,__SREG__
 320               	.LVL11:
 321               	.LSM74:
 322               	/* #APP */
 323               	 ;  450 "usb_keyboard_debug.c" 1
 324 0002 F894      		cli
 325               	 ;  0 "" 2
 326               	.LSM75:
 327               	/* #NOAPP */
 328 0004 8091 0000 		lds r24,debug_flush_timer
 329 0008 8823      		tst r24
 330 000a 01F0      		breq .L29
 331               	.LSM76:
 332 000c 84E0      		ldi r24,lo8(4)
 333 000e 8093 E900 		sts 233,r24
 334 0012 00C0      		rjmp .L30
 335               	.L31:
 336               	.LSM77:
 337 0014 1092 F100 		sts 241,__zero_reg__
 338               	.L30:
 339               	.LSM78:
 340 0018 8091 E800 		lds r24,232
 341 001c 85FD      		sbrc r24,5
 342 001e 00C0      		rjmp .L31
 343               	.LSM79:
 344 0020 8AE3      		ldi r24,lo8(58)
 345 0022 8093 E800 		sts 232,r24
 346               	.LSM80:
 347 0026 1092 0000 		sts debug_flush_timer,__zero_reg__
 348               	.L29:
 349               	.LSM81:
 350 002a 9FBF      		out __SREG__,r25
 351               	/* epilogue start */
 352               	.LSM82:
 353 002c 0895      		ret
 354               	.LFE7:
 356               		.section	.text.__vector_10,"ax",@progbits
 357               	.global	__vector_10
 359               	__vector_10:
 360               	.LFB8:
 361               	.LSM83:
 362 0000 1F92      		push __zero_reg__
 363 0002 0F92      		push r0
 364 0004 0FB6      		in r0,__SREG__
 365 0006 0F92      		push r0
 366 0008 1124      		clr __zero_reg__
 367 000a 2F93      		push r18
 368 000c 8F93      		push r24
 369 000e 9F93      		push r25
 370               	/* prologue: Signal */
 371               	/* frame size = 0 */
 372               	.LSM84:
 373 0010 8091 E100 		lds r24,225
 374               	.LVL12:
 375               	.LSM85:
 376 0014 1092 E100 		sts 225,__zero_reg__
 377               	.LSM86:
 378 0018 982F      		mov r25,r24
 379 001a 83FF      		sbrs r24,3
 380 001c 00C0      		rjmp .L34
 381               	.LVL13:
 382               	.LSM87:
 383 001e 1092 E900 		sts 233,__zero_reg__
 384               	.LSM88:
 385 0022 81E0      		ldi r24,lo8(1)
 386 0024 8093 EB00 		sts 235,r24
 387               	.LSM89:
 388 0028 1092 EC00 		sts 236,__zero_reg__
 389               	.LSM90:
 390 002c 82E2      		ldi r24,lo8(34)
 391 002e 8093 ED00 		sts 237,r24
 392               	.LSM91:
 393 0032 88E0      		ldi r24,lo8(8)
 394 0034 8093 F000 		sts 240,r24
 395               	.LSM92:
 396 0038 1092 0000 		sts usb_configuration,__zero_reg__
 397               	.L34:
 398               	.LSM93:
 399 003c 92FF      		sbrs r25,2
 400 003e 00C0      		rjmp .L39
 401 0040 8091 0000 		lds r24,usb_configuration
 402 0044 8823      		tst r24
 403 0046 01F4      		brne .+2
 404 0048 00C0      		rjmp .L39
 405               	.LSM94:
 406 004a 8091 0000 		lds r24,debug_flush_timer
 407               	.LVL14:
 408               	.LSM95:
 409 004e 8823      		tst r24
 410 0050 01F0      		breq .L36
 411               	.LSM96:
 412 0052 8150      		subi r24,lo8(-(-1))
 413               	.LVL15:
 414 0054 8093 0000 		sts debug_flush_timer,r24
 415               	.LSM97:
 416 0058 8823      		tst r24
 417 005a 01F4      		brne .L36
 418               	.LSM98:
 419 005c 84E0      		ldi r24,lo8(4)
 420               	.LVL16:
 421 005e 8093 E900 		sts 233,r24
 422 0062 00C0      		rjmp .L37
 423               	.L38:
 424               	.LSM99:
 425 0064 1092 F100 		sts 241,__zero_reg__
 426               	.L37:
 427               	.LSM100:
 428 0068 8091 E800 		lds r24,232
 429 006c 85FD      		sbrc r24,5
 430 006e 00C0      		rjmp .L38
 431               	.LSM101:
 432 0070 8AE3      		ldi r24,lo8(58)
 433 0072 8093 E800 		sts 232,r24
 434               	.LVL17:
 435               	.L36:
 436               	.LSM102:
 437 0076 2091 0000 		lds r18,keyboard_idle_config
 438 007a 2223      		tst r18
 439 007c 01F0      		breq .L39
 440 007e 8091 0000 		lds r24,div4.1472
 441               	.LVL18:
 442 0082 8F5F      		subi r24,lo8(-(1))
 443 0084 8093 0000 		sts div4.1472,r24
 444 0088 90E0      		ldi r25,lo8(0)
 445 008a 8370      		andi r24,lo8(3)
 446 008c 9070      		andi r25,hi8(3)
 447 008e 892B      		or r24,r25
 448 0090 01F4      		brne .L39
 449               	.LSM103:
 450 0092 83E0      		ldi r24,lo8(3)
 451 0094 8093 E900 		sts 233,r24
 452               	.LSM104:
 453 0098 8091 E800 		lds r24,232
 454 009c 85FF      		sbrs r24,5
 455 009e 00C0      		rjmp .L39
 456               	.LSM105:
 457 00a0 8091 0000 		lds r24,keyboard_idle_count
 458 00a4 8F5F      		subi r24,lo8(-(1))
 459 00a6 8093 0000 		sts keyboard_idle_count,r24
 460               	.LSM106:
 461 00aa 8217      		cp r24,r18
 462 00ac 01F4      		brne .L39
 463               	.LSM107:
 464 00ae 1092 0000 		sts keyboard_idle_count,__zero_reg__
 465               	.LSM108:
 466 00b2 8091 0000 		lds r24,keyboard_modifier_keys
 467 00b6 8093 F100 		sts 241,r24
 468               	.LSM109:
 469 00ba 1092 F100 		sts 241,__zero_reg__
 470               	.LSM110:
 471 00be 8091 0000 		lds r24,keyboard_keys
 472 00c2 8093 F100 		sts 241,r24
 473 00c6 8091 0000 		lds r24,keyboard_keys+1
 474 00ca 8093 F100 		sts 241,r24
 475 00ce 8091 0000 		lds r24,keyboard_keys+2
 476 00d2 8093 F100 		sts 241,r24
 477 00d6 8091 0000 		lds r24,keyboard_keys+3
 478 00da 8093 F100 		sts 241,r24
 479 00de 8091 0000 		lds r24,keyboard_keys+4
 480 00e2 8093 F100 		sts 241,r24
 481 00e6 8091 0000 		lds r24,keyboard_keys+5
 482 00ea 8093 F100 		sts 241,r24
 483               	.LSM111:
 484 00ee 8AE3      		ldi r24,lo8(58)
 485 00f0 8093 E800 		sts 232,r24
 486               	.LVL19:
 487               	.L39:
 488               	/* epilogue start */
 489               	.LSM112:
 490 00f4 9F91      		pop r25
 491 00f6 8F91      		pop r24
 492               	.LVL20:
 493 00f8 2F91      		pop r18
 494 00fa 0F90      		pop r0
 495 00fc 0FBE      		out __SREG__,r0
 496 00fe 0F90      		pop r0
 497 0100 1F90      		pop __zero_reg__
 498 0102 1895      		reti
 499               	.LFE8:
 501               		.section	.text.__vector_11,"ax",@progbits
 502               	.global	__vector_11
 504               	__vector_11:
 505               	.LFB13:
 506               	.LSM113:
 507 0000 1F92      		push __zero_reg__
 508 0002 0F92      		push r0
 509 0004 0FB6      		in r0,__SREG__
 510 0006 0F92      		push r0
 511 0008 1124      		clr __zero_reg__
 512 000a 2F93      		push r18
 513 000c 3F93      		push r19
 514 000e 4F93      		push r20
 515 0010 5F93      		push r21
 516 0012 6F93      		push r22
 517 0014 7F93      		push r23
 518 0016 8F93      		push r24
 519 0018 9F93      		push r25
 520 001a AF93      		push r26
 521 001c BF93      		push r27
 522 001e CF93      		push r28
 523 0020 DF93      		push r29
 524 0022 EF93      		push r30
 525 0024 FF93      		push r31
 526               	/* prologue: Signal */
 527               	/* frame size = 0 */
 528               	.LSM114:
 529 0026 1092 E900 		sts 233,__zero_reg__
 530               	.LSM115:
 531 002a 8091 E800 		lds r24,232
 532               	.LVL21:
 533               	.LSM116:
 534 002e 83FF      		sbrs r24,3
 535 0030 00C0      		rjmp .L41
 536               	.LSM117:
 537 0032 4091 F100 		lds r20,241
 538               	.LVL22:
 539               	.LSM118:
 540 0036 3091 F100 		lds r19,241
 541               	.LVL23:
 542               	.LSM119:
 543 003a 8091 F100 		lds r24,241
 544               	.LVL24:
 545 003e A82F      		mov r26,r24
 546               	.LVL25:
 547 0040 B0E0      		ldi r27,lo8(0)
 548               	.LVL26:
 549               	.LSM120:
 550 0042 2091 F100 		lds r18,241
 551 0046 922F      		mov r25,r18
 552 0048 80E0      		ldi r24,lo8(0)
 553 004a A82B      		or r26,r24
 554 004c B92B      		or r27,r25
 555               	.LVL27:
 556               	.LSM121:
 557 004e 8091 F100 		lds r24,241
 558 0052 682F      		mov r22,r24
 559               	.LVL28:
 560 0054 70E0      		ldi r23,lo8(0)
 561               	.LVL29:
 562               	.LSM122:
 563 0056 2091 F100 		lds r18,241
 564 005a 922F      		mov r25,r18
 565 005c 80E0      		ldi r24,lo8(0)
 566 005e 682B      		or r22,r24
 567 0060 792B      		or r23,r25
 568               	.LVL30:
 569               	.LSM123:
 570 0062 8091 F100 		lds r24,241
 571 0066 C82F      		mov r28,r24
 572               	.LVL31:
 573 0068 D0E0      		ldi r29,lo8(0)
 574               	.LVL32:
 575               	.LSM124:
 576 006a 2091 F100 		lds r18,241
 577 006e 922F      		mov r25,r18
 578 0070 80E0      		ldi r24,lo8(0)
 579 0072 C82B      		or r28,r24
 580 0074 D92B      		or r29,r25
 581               	.LVL33:
 582               	.LSM125:
 583 0076 82EF      		ldi r24,lo8(-14)
 584 0078 8093 E800 		sts 232,r24
 585               	.LSM126:
 586 007c 3630      		cpi r19,lo8(6)
 587 007e 01F0      		breq .+2
 588 0080 00C0      		rjmp .L42
 589 0082 20E0      		ldi r18,lo8(descriptor_list+7)
 590 0084 30E0      		ldi r19,hi8(descriptor_list+7)
 591 0086 A901      		movw r20,r18
 592               	.LVL34:
 593 0088 4550      		subi r20,lo8(-(-5))
 594 008a 5040      		sbci r21,hi8(-(-5))
 595               	.LVL35:
 596               	.L43:
 597               	.LSM127:
 598 008c F901      		movw r30,r18
 599               	.LVL36:
 600 008e 3797      		sbiw r30,7
 601               	.LBB52:
 602               	.LSM128:
 603               	/* #APP */
 604               	 ;  580 "usb_keyboard_debug.c" 1
 605 0090 8591      		lpm r24, Z+
 606 0092 9491      		lpm r25, Z
 607               		
 608               	 ;  0 "" 2
 609               	.LVL37:
 610               	/* #NOAPP */
 611               	.LBE52:
 612               	.LSM129:
 613 0094 8A17      		cp r24,r26
 614 0096 9B07      		cpc r25,r27
 615 0098 01F4      		brne .L45
 616               	.LBB53:
 617               	.LSM130:
 618 009a FA01      		movw r30,r20
 619               	.LVL38:
 620               	/* #APP */
 621               	 ;  586 "usb_keyboard_debug.c" 1
 622 009c 8591      		lpm r24, Z+
 623 009e 9491      		lpm r25, Z
 624               		
 625               	 ;  0 "" 2
 626               	.LVL39:
 627               	/* #NOAPP */
 628               	.LBE53:
 629               	.LSM131:
 630 00a0 8617      		cp r24,r22
 631 00a2 9707      		cpc r25,r23
 632 00a4 01F4      		brne .L45
 633               	.LSM132:
 634 00a6 9A01      		movw r18,r20
 635               	.LVL40:
 636 00a8 2E5F      		subi r18,lo8(-(2))
 637 00aa 3F4F      		sbci r19,hi8(-(2))
 638               	.LSM133:
 639 00ac F901      		movw r30,r18
 640               	.LVL41:
 641               	/* #APP */
 642               	 ;  592 "usb_keyboard_debug.c" 1
 643 00ae 6591      		lpm r22, Z+
 644 00b0 7491      		lpm r23, Z
 645               		
 646               	 ;  0 "" 2
 647               	.LVL42:
 648               	/* #NOAPP */
 649               	.LBB54:
 650               	.LSM134:
 651 00b2 2E5F      		subi r18,lo8(-(2))
 652 00b4 3F4F      		sbci r19,hi8(-(2))
 653               	.LVL43:
 654 00b6 F901      		movw r30,r18
 655               	/* #APP */
 656               	 ;  594 "usb_keyboard_debug.c" 1
 657 00b8 2491      		lpm r18, Z
 658               		
 659               	 ;  0 "" 2
 660               	.LVL44:
 661               	/* #NOAPP */
 662               	.LBE54:
 663               	.LSM135:
 664 00ba CE01      		movw r24,r28
 665               	.LVL45:
 666 00bc CF3F      		cpi r28,255
 667 00be D105      		cpc r29,__zero_reg__
 668 00c0 01F0      		breq .L46
 669 00c2 00F0      		brlo .L46
 670 00c4 8FEF      		ldi r24,lo8(255)
 671 00c6 90E0      		ldi r25,hi8(255)
 672               	.LVL46:
 673               	.L46:
 674 00c8 422F      		mov r20,r18
 675               	.LVL47:
 676 00ca 8217      		cp r24,r18
 677 00cc 00F4      		brsh .L85
 678               	.LVL48:
 679 00ce 482F      		mov r20,r24
 680               	.LVL49:
 681 00d0 00C0      		rjmp .L85
 682               	.LVL50:
 683               	.L45:
 684 00d2 295F      		subi r18,lo8(-(7))
 685 00d4 3F4F      		sbci r19,hi8(-(7))
 686 00d6 495F      		subi r20,lo8(-(7))
 687 00d8 5F4F      		sbci r21,hi8(-(7))
 688               	.LSM136:
 689 00da F0E0      		ldi r31,hi8(descriptor_list+70)
 690 00dc 2030      		cpi r18,lo8(descriptor_list+70)
 691 00de 3F07      		cpc r19,r31
 692 00e0 01F4      		brne .L43
 693 00e2 00C0      		rjmp .L41
 694               	.LVL51:
 695               	.L85:
 696               	.LBB55:
 697               	.LBB56:
 698               	.LSM137:
 699 00e4 5EEF      		ldi r21,lo8(-2)
 700               	.LVL52:
 701               	.L102:
 702               	.LBE56:
 703               	.LBE55:
 704               	.LSM138:
 705 00e6 8091 E800 		lds r24,232
 706               	.LVL53:
 707               	.LSM139:
 708 00ea 282F      		mov r18,r24
 709               	.LVL54:
 710 00ec 30E0      		ldi r19,lo8(0)
 711               	.LVL55:
 712 00ee C901      		movw r24,r18
 713               	.LVL56:
 714 00f0 8570      		andi r24,lo8(5)
 715 00f2 9070      		andi r25,hi8(5)
 716 00f4 892B      		or r24,r25
 717 00f6 01F0      		breq .L102
 718               	.LSM140:
 719 00f8 22FD      		sbrc r18,2
 720 00fa 00C0      		rjmp .L81
 721               	.LSM141:
 722 00fc 342F      		mov r19,r20
 723               	.LVL57:
 724 00fe 4132      		cpi r20,lo8(33)
 725 0100 00F0      		brlo .L50
 726 0102 30E2      		ldi r19,lo8(32)
 727               	.L50:
 728 0104 232F      		mov r18,r19
 729               	.LVL58:
 730 0106 CB01      		movw r24,r22
 731 0108 00C0      		rjmp .L51
 732               	.LVL59:
 733               	.L52:
 734               	.LSM142:
 735 010a FC01      		movw r30,r24
 736               	.LVL60:
 737               	.LBB58:
 738               	.LSM143:
 739 010c 0196      		adiw r24,1
 740               	/* #APP */
 741               	 ;  608 "usb_keyboard_debug.c" 1
 742 010e E491      		lpm r30, Z
 743               		
 744               	 ;  0 "" 2
 745               	.LVL61:
 746               	/* #NOAPP */
 747               	.LBE58:
 748 0110 E093 F100 		sts 241,r30
 749               	.LSM144:
 750 0114 2150      		subi r18,lo8(-(-1))
 751               	.LVL62:
 752               	.L51:
 753 0116 2223      		tst r18
 754 0118 01F4      		brne .L52
 755 011a 630F      		add r22,r19
 756 011c 711D      		adc r23,__zero_reg__
 757               	.LVL63:
 758               	.LSM145:
 759 011e 431B      		sub r20,r19
 760               	.LBB59:
 761               	.LBB57:
 762               	.LSM146:
 763 0120 5093 E800 		sts 232,r21
 764               	.LBE57:
 765               	.LBE59:
 766               	.LSM147:
 767 0124 4423      		tst r20
 768 0126 01F4      		brne .L102
 769 0128 3032      		cpi r19,lo8(32)
 770 012a 01F0      		breq .L102
 771 012c 00C0      		rjmp .L81
 772               	.LVL64:
 773               	.L42:
 774               	.LSM148:
 775 012e 3530      		cpi r19,lo8(5)
 776 0130 01F4      		brne .L53
 777               	.LBB60:
 778               	.LBB61:
 779               	.LSM149:
 780 0132 8EEF      		ldi r24,lo8(-2)
 781 0134 8093 E800 		sts 232,r24
 782               	.L54:
 783               	.LBE61:
 784               	.LBE60:
 785               	.LBB62:
 786               	.LBB63:
 787               	.LSM150:
 788 0138 8091 E800 		lds r24,232
 789 013c 80FF      		sbrs r24,0
 790 013e 00C0      		rjmp .L54
 791               	.LBE63:
 792               	.LBE62:
 793               	.LSM151:
 794 0140 8A2F      		mov r24,r26
 795               	.LVL65:
 796 0142 8068      		ori r24,lo8(-128)
 797 0144 8093 E300 		sts 227,r24
 798 0148 00C0      		rjmp .L81
 799               	.LVL66:
 800               	.L53:
 801               	.LSM152:
 802 014a 3930      		cpi r19,lo8(9)
 803 014c 01F4      		brne .L55
 804 014e 4423      		tst r20
 805 0150 01F0      		breq .+2
 806 0152 00C0      		rjmp .L65
 807               	.LSM153:
 808 0154 A093 0000 		sts usb_configuration,r26
 809               	.LBB64:
 810               	.LBB65:
 811               	.LSM154:
 812 0158 8EEF      		ldi r24,lo8(-2)
 813 015a 8093 E800 		sts 232,r24
 814 015e 80E0      		ldi r24,lo8(endpoint_config_table)
 815 0160 90E0      		ldi r25,hi8(endpoint_config_table)
 816               	.LVL67:
 817 0162 21E0      		ldi r18,lo8(1)
 818               	.LVL68:
 819               	.L58:
 820               	.LBE65:
 821               	.LBE64:
 822               	.LSM155:
 823 0164 2093 E900 		sts 233,r18
 824               	.LBB66:
 825               	.LSM156:
 826 0168 FC01      		movw r30,r24
 827               	.LVL69:
 828 016a 0196      		adiw r24,1
 829               	/* #APP */
 830               	 ;  627 "usb_keyboard_debug.c" 1
 831 016c E491      		lpm r30, Z
 832               		
 833               	 ;  0 "" 2
 834               	.LVL70:
 835               	/* #NOAPP */
 836               	.LBE66:
 837               	.LSM157:
 838 016e E093 EB00 		sts 235,r30
 839               	.LSM158:
 840 0172 EE23      		tst r30
 841 0174 01F0      		breq .L57
 842               	.LBB67:
 843               	.LSM159:
 844 0176 AC01      		movw r20,r24
 845               	.LVL71:
 846 0178 4F5F      		subi r20,lo8(-(1))
 847 017a 5F4F      		sbci r21,hi8(-(1))
 848               	.LVL72:
 849 017c FC01      		movw r30,r24
 850               	.LVL73:
 851               	/* #APP */
 852               	 ;  630 "usb_keyboard_debug.c" 1
 853 017e 8491      		lpm r24, Z
 854               		
 855               	 ;  0 "" 2
 856               	.LVL74:
 857               	/* #NOAPP */
 858               	.LBE67:
 859 0180 8093 EC00 		sts 236,r24
 860               	.LBB68:
 861               	.LSM160:
 862 0184 CA01      		movw r24,r20
 863               	.LVL75:
 864 0186 0196      		adiw r24,1
 865               	.LVL76:
 866 0188 FA01      		movw r30,r20
 867               	/* #APP */
 868               	 ;  631 "usb_keyboard_debug.c" 1
 869 018a 3491      		lpm r19, Z
 870               		
 871               	 ;  0 "" 2
 872               	.LVL77:
 873               	/* #NOAPP */
 874               	.LBE68:
 875 018c 3093 ED00 		sts 237,r19
 876               	.LVL78:
 877               	.L57:
 878               	.LSM161:
 879 0190 2F5F      		subi r18,lo8(-(1))
 880 0192 2530      		cpi r18,lo8(5)
 881 0194 01F4      		brne .L58
 882               	.LSM162:
 883 0196 8EE1      		ldi r24,lo8(30)
 884               	.LVL79:
 885 0198 00C0      		rjmp .L104
 886               	.LVL80:
 887               	.L55:
 888               	.LSM163:
 889 019a 3830      		cpi r19,lo8(8)
 890 019c 01F4      		brne .L59
 891 019e 4038      		cpi r20,lo8(-128)
 892 01a0 01F0      		breq .+2
 893 01a2 00C0      		rjmp .L65
 894               	.L90:
 895               	.LBB69:
 896               	.LBB70:
 897               	.LSM164:
 898 01a4 8091 E800 		lds r24,232
 899 01a8 80FF      		sbrs r24,0
 900 01aa 00C0      		rjmp .L90
 901               	.LBE70:
 902               	.LBE69:
 903               	.LSM165:
 904 01ac 8091 0000 		lds r24,usb_configuration
 905 01b0 00C0      		rjmp .L106
 906               	.L59:
 907               	.LSM166:
 908 01b2 3323      		tst r19
 909 01b4 01F4      		brne .L56
 910               	.L91:
 911               	.LBB71:
 912               	.LBB72:
 913               	.LSM167:
 914 01b6 8091 E800 		lds r24,232
 915 01ba 80FF      		sbrs r24,0
 916 01bc 00C0      		rjmp .L91
 917               	.LBE72:
 918               	.LBE71:
 919               	.LSM168:
 920 01be 4238      		cpi r20,lo8(-126)
 921 01c0 01F0      		breq .L62
 922 01c2 80E0      		ldi r24,lo8(0)
 923               	.LVL81:
 924 01c4 00C0      		rjmp .L63
 925               	.LVL82:
 926               	.L62:
 927               	.LSM169:
 928 01c6 6093 E900 		sts 233,r22
 929               	.LSM170:
 930 01ca 8091 EB00 		lds r24,235
 931 01ce 90E0      		ldi r25,lo8(0)
 932 01d0 25E0      		ldi r18,5
 933 01d2 9695      	1:	lsr r25
 934 01d4 8795      		ror r24
 935 01d6 2A95      		dec r18
 936 01d8 01F4      		brne 1b
 937 01da 8170      		andi r24,lo8(1)
 938               	.LVL83:
 939               	.LSM171:
 940 01dc 1092 E900 		sts 233,__zero_reg__
 941               	.L63:
 942               	.LSM172:
 943 01e0 8093 F100 		sts 241,r24
 944               	.LSM173:
 945 01e4 1092 F100 		sts 241,__zero_reg__
 946 01e8 00C0      		rjmp .L105
 947               	.LVL84:
 948               	.L56:
 949               	.LSM174:
 950 01ea 3130      		cpi r19,lo8(1)
 951 01ec 01F0      		breq .L64
 952 01ee 3330      		cpi r19,lo8(3)
 953 01f0 01F4      		brne .L65
 954               	.L64:
 955 01f2 4230      		cpi r20,lo8(2)
 956 01f4 01F4      		brne .L65
 957 01f6 1097      		sbiw r26,0
 958 01f8 01F4      		brne .L65
 959               	.LSM175:
 960 01fa 262F      		mov r18,r22
 961               	.LVL85:
 962 01fc 2F77      		andi r18,lo8(127)
 963               	.LSM176:
 964 01fe 822F      		mov r24,r18
 965 0200 8150      		subi r24,lo8(-(-1))
 966 0202 8430      		cpi r24,lo8(4)
 967 0204 00F4      		brsh .L65
 968               	.LBB73:
 969               	.LBB74:
 970               	.LSM177:
 971 0206 8EEF      		ldi r24,lo8(-2)
 972 0208 8093 E800 		sts 232,r24
 973               	.LBE74:
 974               	.LBE73:
 975               	.LSM178:
 976 020c 2093 E900 		sts 233,r18
 977               	.LSM179:
 978 0210 3330      		cpi r19,lo8(3)
 979 0212 01F4      		brne .+2
 980 0214 00C0      		rjmp .L41
 981               	.L66:
 982               	.LSM180:
 983 0216 89E1      		ldi r24,lo8(25)
 984 0218 8093 EB00 		sts 235,r24
 985               	.LSM181:
 986 021c 81E0      		ldi r24,lo8(1)
 987 021e 90E0      		ldi r25,hi8(1)
 988 0220 00C0      		rjmp 2f
 989 0222 880F      	1:	lsl r24
 990 0224 991F      		rol r25
 991 0226 2A95      	2:	dec r18
 992 0228 02F4      		brpl 1b
 993               	.LVL86:
 994               	.L104:
 995 022a 8093 EA00 		sts 234,r24
 996               	.LSM182:
 997 022e 1092 EA00 		sts 234,__zero_reg__
 998 0232 00C0      		rjmp .L81
 999               	.LVL87:
 1000               	.L65:
 1001               	.LSM183:
 1002 0234 6115      		cp r22,__zero_reg__
 1003 0236 7105      		cpc r23,__zero_reg__
 1004 0238 01F0      		breq .+2
 1005 023a 00C0      		rjmp .L67
 1006               	.LSM184:
 1007 023c 413A      		cpi r20,lo8(-95)
 1008 023e 01F4      		brne .L68
 1009               	.LSM185:
 1010 0240 3130      		cpi r19,lo8(1)
 1011 0242 01F4      		brne .L69
 1012               	.L86:
 1013               	.LBB75:
 1014               	.LBB76:
 1015               	.LSM186:
 1016 0244 8091 E800 		lds r24,232
 1017 0248 80FF      		sbrs r24,0
 1018 024a 00C0      		rjmp .L86
 1019               	.LBE76:
 1020               	.LBE75:
 1021               	.LSM187:
 1022 024c 8091 0000 		lds r24,keyboard_modifier_keys
 1023 0250 8093 F100 		sts 241,r24
 1024               	.LSM188:
 1025 0254 1092 F100 		sts 241,__zero_reg__
 1026               	.LSM189:
 1027 0258 8091 0000 		lds r24,keyboard_keys
 1028 025c 8093 F100 		sts 241,r24
 1029 0260 8091 0000 		lds r24,keyboard_keys+1
 1030 0264 8093 F100 		sts 241,r24
 1031 0268 8091 0000 		lds r24,keyboard_keys+2
 1032 026c 8093 F100 		sts 241,r24
 1033 0270 8091 0000 		lds r24,keyboard_keys+3
 1034 0274 8093 F100 		sts 241,r24
 1035 0278 8091 0000 		lds r24,keyboard_keys+4
 1036 027c 8093 F100 		sts 241,r24
 1037 0280 8091 0000 		lds r24,keyboard_keys+5
 1038 0284 00C0      		rjmp .L106
 1039               	.L69:
 1040               	.LSM190:
 1041 0286 3230      		cpi r19,lo8(2)
 1042 0288 01F4      		brne .L71
 1043               	.L87:
 1044               	.LBB77:
 1045               	.LBB78:
 1046               	.LSM191:
 1047 028a 8091 E800 		lds r24,232
 1048 028e 80FF      		sbrs r24,0
 1049 0290 00C0      		rjmp .L87
 1050               	.LBE78:
 1051               	.LBE77:
 1052               	.LSM192:
 1053 0292 8091 0000 		lds r24,keyboard_idle_config
 1054 0296 00C0      		rjmp .L106
 1055               	.L71:
 1056               	.LSM193:
 1057 0298 3330      		cpi r19,lo8(3)
 1058 029a 01F0      		breq .+2
 1059 029c 00C0      		rjmp .L41
 1060               	.L88:
 1061               	.LBB79:
 1062               	.LBB80:
 1063               	.LSM194:
 1064 029e 8091 E800 		lds r24,232
 1065 02a2 80FF      		sbrs r24,0
 1066 02a4 00C0      		rjmp .L88
 1067               	.LBE80:
 1068               	.LBE79:
 1069               	.LSM195:
 1070 02a6 8091 0000 		lds r24,keyboard_protocol
 1071               	.L106:
 1072 02aa 8093 F100 		sts 241,r24
 1073 02ae 00C0      		rjmp .L105
 1074               	.L68:
 1075               	.LSM196:
 1076 02b0 4132      		cpi r20,lo8(33)
 1077 02b2 01F0      		breq .+2
 1078 02b4 00C0      		rjmp .L41
 1079               	.LSM197:
 1080 02b6 3930      		cpi r19,lo8(9)
 1081 02b8 01F4      		brne .L74
 1082               	.L89:
 1083               	.LBB81:
 1084               	.LBB82:
 1085               	.LSM198:
 1086 02ba 8091 E800 		lds r24,232
 1087 02be 82FF      		sbrs r24,2
 1088 02c0 00C0      		rjmp .L89
 1089               	.LBE82:
 1090               	.LBE81:
 1091               	.LSM199:
 1092 02c2 8091 F100 		lds r24,241
 1093 02c6 8093 0000 		sts keyboard_leds,r24
 1094               	.LBB83:
 1095               	.LBB84:
 1096               	.LSM200:
 1097 02ca 8BEF      		ldi r24,lo8(-5)
 1098 02cc 8093 E800 		sts 232,r24
 1099 02d0 00C0      		rjmp .L105
 1100               	.L74:
 1101               	.LBE84:
 1102               	.LBE83:
 1103               	.LSM201:
 1104 02d2 3A30      		cpi r19,lo8(10)
 1105 02d4 01F4      		brne .L76
 1106               	.LSM202:
 1107 02d6 B093 0000 		sts keyboard_idle_config,r27
 1108               	.LSM203:
 1109 02da 1092 0000 		sts keyboard_idle_count,__zero_reg__
 1110 02de 00C0      		rjmp .L105
 1111               	.L76:
 1112               	.LSM204:
 1113 02e0 3B30      		cpi r19,lo8(11)
 1114 02e2 01F4      		brne .L41
 1115               	.LSM205:
 1116 02e4 A093 0000 		sts keyboard_protocol,r26
 1117               	.LVL88:
 1118               	.L105:
 1119               	.LBB85:
 1120               	.LBB86:
 1121               	.LSM206:
 1122 02e8 8EEF      		ldi r24,lo8(-2)
 1123 02ea 8093 E800 		sts 232,r24
 1124 02ee 00C0      		rjmp .L81
 1125               	.L67:
 1126               	.LBE86:
 1127               	.LBE85:
 1128               	.LSM207:
 1129 02f0 6130      		cpi r22,1
 1130 02f2 7105      		cpc r23,__zero_reg__
 1131 02f4 01F4      		brne .L41
 1132               	.LSM208:
 1133 02f6 3130      		cpi r19,lo8(1)
 1134 02f8 01F4      		brne .L41
 1135 02fa 413A      		cpi r20,lo8(-95)
 1136 02fc 01F4      		brne .L41
 1137               	.LSM209:
 1138 02fe 4C2F      		mov r20,r28
 1139               	.LVL89:
 1140               	.LBB87:
 1141               	.LBB88:
 1142               	.LSM210:
 1143 0300 5EEF      		ldi r21,lo8(-2)
 1144               	.LVL90:
 1145               	.L103:
 1146               	.LBE88:
 1147               	.LBE87:
 1148               	.LSM211:
 1149 0302 8091 E800 		lds r24,232
 1150               	.LVL91:
 1151               	.LSM212:
 1152 0306 282F      		mov r18,r24
 1153 0308 30E0      		ldi r19,lo8(0)
 1154               	.LVL92:
 1155 030a C901      		movw r24,r18
 1156               	.LVL93:
 1157 030c 8570      		andi r24,lo8(5)
 1158 030e 9070      		andi r25,hi8(5)
 1159 0310 892B      		or r24,r25
 1160 0312 01F0      		breq .L103
 1161               	.LSM213:
 1162 0314 22FD      		sbrc r18,2
 1163 0316 00C0      		rjmp .L81
 1164               	.LSM214:
 1165 0318 942F      		mov r25,r20
 1166 031a 4132      		cpi r20,lo8(33)
 1167 031c 00F0      		brlo .L78
 1168 031e 90E2      		ldi r25,lo8(32)
 1169               	.L78:
 1170 0320 892F      		mov r24,r25
 1171               	.LVL94:
 1172 0322 00C0      		rjmp .L79
 1173               	.L80:
 1174               	.LSM215:
 1175 0324 1092 F100 		sts 241,__zero_reg__
 1176               	.LSM216:
 1177 0328 8150      		subi r24,lo8(-(-1))
 1178               	.L79:
 1179 032a 8823      		tst r24
 1180 032c 01F4      		brne .L80
 1181               	.LSM217:
 1182 032e 491B      		sub r20,r25
 1183               	.LBB90:
 1184               	.LBB89:
 1185               	.LSM218:
 1186 0330 5093 E800 		sts 232,r21
 1187               	.LBE89:
 1188               	.LBE90:
 1189               	.LSM219:
 1190 0334 4423      		tst r20
 1191 0336 01F4      		brne .L103
 1192 0338 9032      		cpi r25,lo8(32)
 1193 033a 01F0      		breq .L103
 1194 033c 00C0      		rjmp .L81
 1195               	.LVL95:
 1196               	.L41:
 1197               	.LSM220:
 1198 033e 81E2      		ldi r24,lo8(33)
 1199               	.LVL96:
 1200 0340 8093 EB00 		sts 235,r24
 1201               	.LVL97:
 1202               	.L81:
 1203               	/* epilogue start */
 1204               	.LSM221:
 1205 0344 FF91      		pop r31
 1206 0346 EF91      		pop r30
 1207               	.LVL98:
 1208 0348 DF91      		pop r29
 1209               	.LVL99:
 1210 034a CF91      		pop r28
 1211               	.LVL100:
 1212 034c BF91      		pop r27
 1213               	.LVL101:
 1214 034e AF91      		pop r26
 1215               	.LVL102:
 1216 0350 9F91      		pop r25
 1217               	.LVL103:
 1218 0352 8F91      		pop r24
 1219 0354 7F91      		pop r23
 1220               	.LVL104:
 1221 0356 6F91      		pop r22
 1222               	.LVL105:
 1223 0358 5F91      		pop r21
 1224 035a 4F91      		pop r20
 1225               	.LVL106:
 1226 035c 3F91      		pop r19
 1227               	.LVL107:
 1228 035e 2F91      		pop r18
 1229               	.LVL108:
 1230 0360 0F90      		pop r0
 1231 0362 0FBE      		out __SREG__,r0
 1232 0364 0F90      		pop r0
 1233 0366 1F90      		pop __zero_reg__
 1234 0368 1895      		reti
 1235               	.LFE13:
 1237               	.global	keyboard_modifier_keys
 1238               	.global	keyboard_modifier_keys
 1239               		.section .bss
 1242               	keyboard_modifier_keys:
 1243 0000 00        		.skip 1,0
 1244               	.global	keyboard_keys
 1245               	.global	keyboard_keys
 1248               	keyboard_keys:
 1249 0001 0000 0000 		.skip 6,0
 1249      0000 
 1250               	.global	keyboard_leds
 1251               	.global	keyboard_leds
 1254               	keyboard_leds:
 1255 0007 00        		.skip 1,0
 1256               		.section	.progmem.data,"a",@progbits
 1259               	descriptor_list:
 1260 0000 0001      		.word	256
 1261 0002 0000      		.word	0
 1262 0004 0000      		.word	device_descriptor
 1263 0006 12        		.byte	18
 1264 0007 0002      		.word	512
 1265 0009 0000      		.word	0
 1266 000b 0000      		.word	config1_descriptor
 1267 000d 3B        		.byte	59
 1268 000e 0022      		.word	8704
 1269 0010 0000      		.word	0
 1270 0012 0000      		.word	keyboard_hid_report_desc
 1271 0014 3F        		.byte	63
 1272 0015 0021      		.word	8448
 1273 0017 0000      		.word	0
 1274 0019 0000      		.word	config1_descriptor+18
 1275 001b 09        		.byte	9
 1276 001c 0022      		.word	8704
 1277 001e 0100      		.word	1
 1278 0020 0000      		.word	debug_hid_report_desc
 1279 0022 15        		.byte	21
 1280 0023 0021      		.word	8448
 1281 0025 0100      		.word	1
 1282 0027 0000      		.word	config1_descriptor+43
 1283 0029 09        		.byte	9
 1284 002a 0003      		.word	768
 1285 002c 0000      		.word	0
 1286 002e 0000      		.word	string0
 1287 0030 04        		.byte	4
 1288 0031 0103      		.word	769
 1289 0033 0904      		.word	1033
 1290 0035 0000      		.word	string1
 1291 0037 10        		.byte	16
 1292 0038 0203      		.word	770
 1293 003a 0904      		.word	1033
 1294 003c 0000      		.word	string2
 1295 003e 12        		.byte	18
 1296               		.lcomm usb_configuration,1
 1299               	endpoint_config_table:
 1300 003f 00        		.byte	0
 1301 0040 00        		.byte	0
 1302 0041 01        		.byte	1
 1303 0042 C1        		.byte	-63
 1304 0043 06        		.byte	6
 1305 0044 01        		.byte	1
 1306 0045 C1        		.byte	-63
 1307 0046 26        		.byte	38
 1308               		.data
 1311               	keyboard_idle_config:
 1312 0000 7D        		.byte	125
 1315               	keyboard_protocol:
 1316 0001 01        		.byte	1
 1317               		.lcomm keyboard_idle_count,1
 1318               		.lcomm debug_flush_timer,1
 1319               		.lcomm div4.1472,1
 1320               		.lcomm previous_timeout.1424,1
 1321               		.section	.progmem.data
 1324               	device_descriptor:
 1325 0047 12        		.byte	18
 1326 0048 01        		.byte	1
 1327 0049 00        		.byte	0
 1328 004a 02        		.byte	2
 1329 004b 00        		.byte	0
 1330 004c 00        		.byte	0
 1331 004d 00        		.byte	0
 1332 004e 20        		.byte	32
 1333 004f C0        		.byte	-64
 1334 0050 16        		.byte	22
 1335 0051 7D        		.byte	125
 1336 0052 04        		.byte	4
 1337 0053 00        		.byte	0
 1338 0054 01        		.byte	1
 1339 0055 01        		.byte	1
 1340 0056 02        		.byte	2
 1341 0057 00        		.byte	0
 1342 0058 01        		.byte	1
 1345               	config1_descriptor:
 1346 0059 09        		.byte	9
 1347 005a 02        		.byte	2
 1348 005b 3B        		.byte	59
 1349 005c 00        		.byte	0
 1350 005d 02        		.byte	2
 1351 005e 01        		.byte	1
 1352 005f 00        		.byte	0
 1353 0060 C0        		.byte	-64
 1354 0061 32        		.byte	50
 1355 0062 09        		.byte	9
 1356 0063 04        		.byte	4
 1357 0064 00        		.byte	0
 1358 0065 00        		.byte	0
 1359 0066 01        		.byte	1
 1360 0067 03        		.byte	3
 1361 0068 01        		.byte	1
 1362 0069 01        		.byte	1
 1363 006a 00        		.byte	0
 1364 006b 09        		.byte	9
 1365 006c 21        		.byte	33
 1366 006d 11        		.byte	17
 1367 006e 01        		.byte	1
 1368 006f 00        		.byte	0
 1369 0070 01        		.byte	1
 1370 0071 22        		.byte	34
 1371 0072 3F        		.byte	63
 1372 0073 00        		.byte	0
 1373 0074 07        		.byte	7
 1374 0075 05        		.byte	5
 1375 0076 83        		.byte	-125
 1376 0077 03        		.byte	3
 1377 0078 08        		.byte	8
 1378 0079 00        		.byte	0
 1379 007a 01        		.byte	1
 1380 007b 09        		.byte	9
 1381 007c 04        		.byte	4
 1382 007d 01        		.byte	1
 1383 007e 00        		.byte	0
 1384 007f 01        		.byte	1
 1385 0080 03        		.byte	3
 1386 0081 00        		.byte	0
 1387 0082 00        		.byte	0
 1388 0083 00        		.byte	0
 1389 0084 09        		.byte	9
 1390 0085 21        		.byte	33
 1391 0086 11        		.byte	17
 1392 0087 01        		.byte	1
 1393 0088 00        		.byte	0
 1394 0089 01        		.byte	1
 1395 008a 22        		.byte	34
 1396 008b 15        		.byte	21
 1397 008c 00        		.byte	0
 1398 008d 07        		.byte	7
 1399 008e 05        		.byte	5
 1400 008f 84        		.byte	-124
 1401 0090 03        		.byte	3
 1402 0091 20        		.byte	32
 1403 0092 00        		.byte	0
 1404 0093 01        		.byte	1
 1407               	keyboard_hid_report_desc:
 1408 0094 05        		.byte	5
 1409 0095 01        		.byte	1
 1410 0096 09        		.byte	9
 1411 0097 06        		.byte	6
 1412 0098 A1        		.byte	-95
 1413 0099 01        		.byte	1
 1414 009a 75        		.byte	117
 1415 009b 01        		.byte	1
 1416 009c 95        		.byte	-107
 1417 009d 08        		.byte	8
 1418 009e 05        		.byte	5
 1419 009f 07        		.byte	7
 1420 00a0 19        		.byte	25
 1421 00a1 E0        		.byte	-32
 1422 00a2 29        		.byte	41
 1423 00a3 E7        		.byte	-25
 1424 00a4 15        		.byte	21
 1425 00a5 00        		.byte	0
 1426 00a6 25        		.byte	37
 1427 00a7 01        		.byte	1
 1428 00a8 81        		.byte	-127
 1429 00a9 02        		.byte	2
 1430 00aa 95        		.byte	-107
 1431 00ab 01        		.byte	1
 1432 00ac 75        		.byte	117
 1433 00ad 08        		.byte	8
 1434 00ae 81        		.byte	-127
 1435 00af 03        		.byte	3
 1436 00b0 95        		.byte	-107
 1437 00b1 05        		.byte	5
 1438 00b2 75        		.byte	117
 1439 00b3 01        		.byte	1
 1440 00b4 05        		.byte	5
 1441 00b5 08        		.byte	8
 1442 00b6 19        		.byte	25
 1443 00b7 01        		.byte	1
 1444 00b8 29        		.byte	41
 1445 00b9 05        		.byte	5
 1446 00ba 91        		.byte	-111
 1447 00bb 02        		.byte	2
 1448 00bc 95        		.byte	-107
 1449 00bd 01        		.byte	1
 1450 00be 75        		.byte	117
 1451 00bf 03        		.byte	3
 1452 00c0 91        		.byte	-111
 1453 00c1 03        		.byte	3
 1454 00c2 95        		.byte	-107
 1455 00c3 06        		.byte	6
 1456 00c4 75        		.byte	117
 1457 00c5 08        		.byte	8
 1458 00c6 15        		.byte	21
 1459 00c7 00        		.byte	0
 1460 00c8 25        		.byte	37
 1461 00c9 68        		.byte	104
 1462 00ca 05        		.byte	5
 1463 00cb 07        		.byte	7
 1464 00cc 19        		.byte	25
 1465 00cd 00        		.byte	0
 1466 00ce 29        		.byte	41
 1467 00cf 68        		.byte	104
 1468 00d0 81        		.byte	-127
 1469 00d1 00        		.byte	0
 1470 00d2 C0        		.byte	-64
 1473               	debug_hid_report_desc:
 1474 00d3 06        		.byte	6
 1475 00d4 31        		.byte	49
 1476 00d5 FF        		.byte	-1
 1477 00d6 09        		.byte	9
 1478 00d7 74        		.byte	116
 1479 00d8 A1        		.byte	-95
 1480 00d9 53        		.byte	83
 1481 00da 75        		.byte	117
 1482 00db 08        		.byte	8
 1483 00dc 15        		.byte	21
 1484 00dd 00        		.byte	0
 1485 00de 26        		.byte	38
 1486 00df FF        		.byte	-1
 1487 00e0 00        		.byte	0
 1488 00e1 95        		.byte	-107
 1489 00e2 20        		.byte	32
 1490 00e3 09        		.byte	9
 1491 00e4 75        		.byte	117
 1492 00e5 81        		.byte	-127
 1493 00e6 02        		.byte	2
 1494 00e7 C0        		.byte	-64
 1497               	string0:
 1498 00e8 04        		.byte	4
 1499 00e9 03        		.byte	3
 1500 00ea 0904      		.word	1033
 1503               	string1:
 1504 00ec 10        		.byte	16
 1505 00ed 03        		.byte	3
 1506 00ee 4D00      		.string	"M"
 1507 00f0 6600      		.string	"f"
 1508 00f2 6700      		.string	"g"
 1509 00f4 4E00      		.string	"N"
 1510 00f6 6100      		.string	"a"
 1511 00f8 6D00      		.string	"m"
 1512 00fa 6500      		.string	"e"
 1513 00fc 00        		.string	""
 1514 00fd 00        		.string	""
 1517               	string2:
 1518 00fe 12        		.byte	18
 1519 00ff 03        		.byte	3
 1520 0100 4B00      		.string	"K"
 1521 0102 6500      		.string	"e"
 1522 0104 7900      		.string	"y"
 1523 0106 6200      		.string	"b"
 1524 0108 6F00      		.string	"o"
 1525 010a 6100      		.string	"a"
 1526 010c 7200      		.string	"r"
 1527 010e 6400      		.string	"d"
 1528 0110 00        		.string	""
 1529 0111 00        		.string	""
 1610               	.Letext0:
DEFINED SYMBOLS
                            *ABS*:00000000 usb_keyboard_debug.c
C:\Users\Fred\AppData\Local\Temp/ccm6jx66.s:2      *ABS*:0000003f __SREG__
C:\Users\Fred\AppData\Local\Temp/ccm6jx66.s:3      *ABS*:0000003e __SP_H__
C:\Users\Fred\AppData\Local\Temp/ccm6jx66.s:4      *ABS*:0000003d __SP_L__
C:\Users\Fred\AppData\Local\Temp/ccm6jx66.s:5      *ABS*:00000034 __CCP__
C:\Users\Fred\AppData\Local\Temp/ccm6jx66.s:6      *ABS*:00000000 __tmp_reg__
C:\Users\Fred\AppData\Local\Temp/ccm6jx66.s:7      *ABS*:00000001 __zero_reg__
C:\Users\Fred\AppData\Local\Temp/ccm6jx66.s:19     .text.usb_init:00000000 usb_init
                             .bss:00000008 usb_configuration
C:\Users\Fred\AppData\Local\Temp/ccm6jx66.s:62     .text.usb_configured:00000000 usb_configured
C:\Users\Fred\AppData\Local\Temp/ccm6jx66.s:77     .text.usb_keyboard_send:00000000 usb_keyboard_send
C:\Users\Fred\AppData\Local\Temp/ccm6jx66.s:1242   .bss:00000000 keyboard_modifier_keys
C:\Users\Fred\AppData\Local\Temp/ccm6jx66.s:1248   .bss:00000001 keyboard_keys
C:\Users\Fred\AppData\Local\Temp/ccm6jx66.s:1296   .bss:00000009 keyboard_idle_count
C:\Users\Fred\AppData\Local\Temp/ccm6jx66.s:169    .text.usb_keyboard_press:00000000 usb_keyboard_press
C:\Users\Fred\AppData\Local\Temp/ccm6jx66.s:202    .text.usb_debug_putchar:00000000 usb_debug_putchar
C:\Users\Fred\AppData\Local\Temp/ccm6jx66.s:1319   .bss:0000000c previous_timeout.1424
C:\Users\Fred\AppData\Local\Temp/ccm6jx66.s:1317   .bss:0000000a debug_flush_timer
C:\Users\Fred\AppData\Local\Temp/ccm6jx66.s:313    .text.usb_debug_flush_output:00000000 usb_debug_flush_output
C:\Users\Fred\AppData\Local\Temp/ccm6jx66.s:359    .text.__vector_10:00000000 __vector_10
C:\Users\Fred\AppData\Local\Temp/ccm6jx66.s:1311   .data:00000000 keyboard_idle_config
C:\Users\Fred\AppData\Local\Temp/ccm6jx66.s:1318   .bss:0000000b div4.1472
C:\Users\Fred\AppData\Local\Temp/ccm6jx66.s:504    .text.__vector_11:00000000 __vector_11
C:\Users\Fred\AppData\Local\Temp/ccm6jx66.s:1259   .progmem.data:00000000 descriptor_list
C:\Users\Fred\AppData\Local\Temp/ccm6jx66.s:1299   .progmem.data:0000003f endpoint_config_table
C:\Users\Fred\AppData\Local\Temp/ccm6jx66.s:1315   .data:00000001 keyboard_protocol
C:\Users\Fred\AppData\Local\Temp/ccm6jx66.s:1254   .bss:00000007 keyboard_leds
C:\Users\Fred\AppData\Local\Temp/ccm6jx66.s:1324   .progmem.data:00000047 device_descriptor
C:\Users\Fred\AppData\Local\Temp/ccm6jx66.s:1345   .progmem.data:00000059 config1_descriptor
C:\Users\Fred\AppData\Local\Temp/ccm6jx66.s:1407   .progmem.data:00000094 keyboard_hid_report_desc
C:\Users\Fred\AppData\Local\Temp/ccm6jx66.s:1473   .progmem.data:000000d3 debug_hid_report_desc
C:\Users\Fred\AppData\Local\Temp/ccm6jx66.s:1497   .progmem.data:000000e8 string0
C:\Users\Fred\AppData\Local\Temp/ccm6jx66.s:1503   .progmem.data:000000ec string1
C:\Users\Fred\AppData\Local\Temp/ccm6jx66.s:1517   .progmem.data:000000fe string2

UNDEFINED SYMBOLS
__do_copy_data
__do_clear_bss
